target datalayout = "e-m:e-p270:32:32-p271:32:32-p272:64:64-i64:64-i128:128-f80:128-n8:16:32:64-S128"
target triple = "x86_64-pc-linux-gnu"

@.str.1 = private unnamed_addr constant [128 x i8] c"generated/home/dtcxzyw/WorkSpace/Projects/compilers/llvm-opt-benchmark/bench/gromacs/gromacs/src/gromacs/gmxana/dens_filter.cpp\00", align 1
@.str.2 = private unnamed_addr constant [9 x i8] c"filtered\00", align 1

; Function Attrs: inlinehint mustprogress uwtable
define internal void @_ZL14gmx_sfree_implIfEvPKcS1_iPT_(ptr noundef %0, ptr noundef %1, i32 noundef %2, ptr noundef %3) #2 {
  %5 = alloca ptr, align 8
  %6 = alloca ptr, align 8
  %7 = alloca i32, align 4
  %8 = alloca ptr, align 8
  store ptr %0, ptr %5, align 8, !tbaa !19
  store ptr %1, ptr %6, align 8, !tbaa !19
  store i32 %2, ptr %7, align 4, !tbaa !4
  store ptr %3, ptr %8, align 8, !tbaa !8
  %9 = load ptr, ptr %5, align 8, !tbaa !19
  %10 = load ptr, ptr %6, align 8, !tbaa !19
  %11 = load i32, ptr %7, align 4, !tbaa !4
  %12 = load ptr, ptr %8, align 8, !tbaa !8
  call void @_Z9save_freePKcS0_iPv(ptr noundef %9, ptr noundef %10, i32 noundef %11, ptr noundef %12)
  ret void
}

; Function Attrs: inlinehint mustprogress uwtable
define internal void @_ZL13gmx_snew_implIfEvPKcS1_iRPT_m(ptr noundef %0, ptr noundef %1, i32 noundef %2, ptr noundef nonnull align 8 dereferenceable(8) %3, i64 noundef %4) #2 {
  %6 = alloca ptr, align 8
  %7 = alloca ptr, align 8
  %8 = alloca i32, align 4
  %9 = alloca ptr, align 8
  %10 = alloca i64, align 8
  store ptr %0, ptr %6, align 8, !tbaa !19
  store ptr %1, ptr %7, align 8, !tbaa !19
  store i32 %2, ptr %8, align 4, !tbaa !4
  store ptr %3, ptr %9, align 8, !tbaa !21
  store i64 %4, ptr %10, align 8, !tbaa !24
  %11 = load ptr, ptr %6, align 8, !tbaa !19
  %12 = load ptr, ptr %7, align 8, !tbaa !19
  %13 = load i32, ptr %8, align 4, !tbaa !4
  %14 = load i64, ptr %10, align 8, !tbaa !24
  %15 = call noundef ptr @_Z11save_callocPKcS0_imm(ptr noundef %11, ptr noundef %12, i32 noundef %13, i64 noundef %14, i64 noundef 4)
  %16 = load ptr, ptr %9, align 8, !tbaa !21
  store ptr %15, ptr %16, align 8, !tbaa !8
  ret void
}

; Function Attrs: mustprogress uwtable
define noundef zeroext i1 @_Z20periodic_convolutioniPfiPKf(i32 noundef %0, ptr noundef %1, i32 noundef %2, ptr noundef %3) #0 {
  %5 = alloca i1, align 1
  %6 = alloca i32, align 4
  %7 = alloca ptr, align 8
  %8 = alloca i32, align 4
  %9 = alloca ptr, align 8
  %10 = alloca i32, align 4
  %11 = alloca i32, align 4
  %12 = alloca i32, align 4
  %13 = alloca ptr, align 8
  %14 = alloca i32, align 4
  store i32 %0, ptr %6, align 4, !tbaa !4
  store ptr %1, ptr %7, align 8, !tbaa !8
  store i32 %2, ptr %8, align 4, !tbaa !4
  store ptr %3, ptr %9, align 8, !tbaa !8
  call void @llvm.lifetime.start.p0(i64 4, ptr %10) #7
  call void @llvm.lifetime.start.p0(i64 4, ptr %11) #7
  call void @llvm.lifetime.start.p0(i64 4, ptr %12) #7
  call void @llvm.lifetime.start.p0(i64 8, ptr %13) #7
  %15 = load ptr, ptr %7, align 8, !tbaa !8
  %16 = icmp ne ptr %15, null
  br i1 %16, label %17, label %20

17:                                               ; preds = %4
  %18 = load ptr, ptr %9, align 8, !tbaa !8
  %19 = icmp ne ptr %18, null
  br i1 %19, label %21, label %20

20:                                               ; preds = %17, %4
  store i1 false, ptr %5, align 1
  store i32 1, ptr %14, align 4
  br label %95

21:                                               ; preds = %17
  %22 = load i32, ptr %8, align 4, !tbaa !4
  %23 = icmp sle i32 %22, 0
  br i1 %23, label %31, label %24

24:                                               ; preds = %21
  %25 = load i32, ptr %6, align 4, !tbaa !4
  %26 = icmp sle i32 %25, 0
  br i1 %26, label %31, label %27

27:                                               ; preds = %24
  %28 = load i32, ptr %8, align 4, !tbaa !4
  %29 = load i32, ptr %6, align 4, !tbaa !4
  %30 = icmp sgt i32 %28, %29
  br i1 %30, label %31, label %32

31:                                               ; preds = %27, %24, %21
  store i1 false, ptr %5, align 1
  store i32 1, ptr %14, align 4
  br label %95

32:                                               ; preds = %27
  %33 = load i32, ptr %6, align 4, !tbaa !4
  %34 = sext i32 %33 to i64
  call void @_ZL13gmx_snew_implIfEvPKcS1_iRPT_m(ptr noundef @.str.2, ptr noundef @.str.1, i32 noundef 105, ptr noundef nonnull align 8 dereferenceable(8) %13, i64 noundef %34)
  store i32 0, ptr %10, align 4, !tbaa !4
  br label %35

35:                                               ; preds = %72, %32
  %36 = load i32, ptr %10, align 4, !tbaa !4
  %37 = load i32, ptr %6, align 4, !tbaa !4
  %38 = icmp slt i32 %36, %37
  br i1 %38, label %39, label %75

39:                                               ; preds = %35
  store i32 0, ptr %11, align 4, !tbaa !4
  br label %40

40:                                               ; preds = %68, %39
  %41 = load i32, ptr %11, align 4, !tbaa !4
  %42 = load i32, ptr %8, align 4, !tbaa !4
  %43 = icmp slt i32 %41, %42
  br i1 %43, label %44, label %71

44:                                               ; preds = %40
  %45 = load i32, ptr %10, align 4, !tbaa !4
  %46 = load i32, ptr %11, align 4, !tbaa !4
  %47 = sub nsw i32 %45, %46
  %48 = load i32, ptr %6, align 4, !tbaa !4
  %49 = add nsw i32 %47, %48
  store i32 %49, ptr %12, align 4, !tbaa !4
  %50 = load ptr, ptr %9, align 8, !tbaa !8
  %51 = load i32, ptr %11, align 4, !tbaa !4
  %52 = sext i32 %51 to i64
  %53 = getelementptr inbounds float, ptr %50, i64 %52
  %54 = load float, ptr %53, align 4, !tbaa !11
  %55 = load ptr, ptr %7, align 8, !tbaa !8
  %56 = load i32, ptr %12, align 4, !tbaa !4
  %57 = load i32, ptr %6, align 4, !tbaa !4
  %58 = srem i32 %56, %57
  %59 = sext i32 %58 to i64
  %60 = getelementptr inbounds float, ptr %55, i64 %59
  %61 = load float, ptr %60, align 4, !tbaa !11
  %62 = load ptr, ptr %13, align 8, !tbaa !8
  %63 = load i32, ptr %10, align 4, !tbaa !4
  %64 = sext i32 %63 to i64
  %65 = getelementptr inbounds float, ptr %62, i64 %64
  %66 = load float, ptr %65, align 4, !tbaa !11
  %67 = call float @llvm.fmuladd.f32(float %54, float %61, float %66)
  store float %67, ptr %65, align 4, !tbaa !11
  br label %68

68:                                               ; preds = %44
  %69 = load i32, ptr %11, align 4, !tbaa !4
  %70 = add nsw i32 %69, 1
  store i32 %70, ptr %11, align 4, !tbaa !4
  br label %40, !llvm.loop !26

71:                                               ; preds = %40
  br label %72

72:                                               ; preds = %71
  %73 = load i32, ptr %10, align 4, !tbaa !4
  %74 = add nsw i32 %73, 1
  store i32 %74, ptr %10, align 4, !tbaa !4
  br label %35, !llvm.loop !27

75:                                               ; preds = %35
  store i32 0, ptr %10, align 4, !tbaa !4
  br label %76

76:                                               ; preds = %90, %75
  %77 = load i32, ptr %10, align 4, !tbaa !4
  %78 = load i32, ptr %6, align 4, !tbaa !4
  %79 = icmp slt i32 %77, %78
  br i1 %79, label %80, label %93

80:                                               ; preds = %76
  %81 = load ptr, ptr %13, align 8, !tbaa !8
  %82 = load i32, ptr %10, align 4, !tbaa !4
  %83 = sext i32 %82 to i64
  %84 = getelementptr inbounds float, ptr %81, i64 %83
  %85 = load float, ptr %84, align 4, !tbaa !11
  %86 = load ptr, ptr %7, align 8, !tbaa !8
  %87 = load i32, ptr %10, align 4, !tbaa !4
  %88 = sext i32 %87 to i64
  %89 = getelementptr inbounds float, ptr %86, i64 %88
  store float %85, ptr %89, align 4, !tbaa !11
  br label %90

90:                                               ; preds = %80
  %91 = load i32, ptr %10, align 4, !tbaa !4
  %92 = add nsw i32 %91, 1
  store i32 %92, ptr %10, align 4, !tbaa !4
  br label %76, !llvm.loop !28

93:                                               ; preds = %76
  %94 = load ptr, ptr %13, align 8, !tbaa !8
  call void @_ZL14gmx_sfree_implIfEvPKcS1_iPT_(ptr noundef @.str.2, ptr noundef @.str.1, i32 noundef 120, ptr noundef %94)
  store i1 true, ptr %5, align 1
  store i32 1, ptr %14, align 4
  br label %95

95:                                               ; preds = %93, %31, %20
  call void @llvm.lifetime.end.p0(i64 8, ptr %13) #7
  call void @llvm.lifetime.end.p0(i64 4, ptr %12) #7
  call void @llvm.lifetime.end.p0(i64 4, ptr %11) #7
  call void @llvm.lifetime.end.p0(i64 4, ptr %10) #7
  %96 = load i1, ptr %5, align 1
  ret i1 %96
}