; Function Attrs: mustprogress uwtable
define noundef zeroext i1 @_Z20periodic_convolutioniPfiPKf(i32 noundef %0, ptr noundef %1, i32 noundef %2, ptr noundef readonly %3) local_unnamed_addr #0 {
  %5 = icmp ne ptr %1, null
  %6 = icmp ne ptr %3, null
  %or.cond = and i1 %5, %6
  br i1 %or.cond, label %7, label %30

7:                                                ; preds = %4
  %8 = icmp slt i32 %2, 1
  %9 = icmp slt i32 %0, 1
  %or.cond3 = or i1 %9, %8
  %10 = icmp sgt i32 %2, %0
  %or.cond37 = or i1 %10, %or.cond3
  br i1 %or.cond37, label %30, label %.split.us

.split.us:                                        ; preds = %7
  %11 = zext nneg i32 %0 to i64
  %12 = tail call noundef ptr @_Z11save_callocPKcS0_imm(ptr noundef nonnull @.str.2, ptr noundef nonnull @.str.1, i32 noundef 105, i64 noundef range(i64 -2147483648, 2147483648) %11, i64 noundef 4)
  %wide.trip.count = zext nneg i32 %2 to i64
  br label %.preheader40.us

.preheader40.us:                                  ; preds = %._crit_edge.us, %.split.us
  %indvars.iv45 = phi i64 [ %indvars.iv.next46, %._crit_edge.us ], [ 0, %.split.us ]
  %13 = getelementptr inbounds nuw float, ptr %12, i64 %indvars.iv45
  %.promoted.us = load float, ptr %13, align 4, !tbaa !4
  %14 = trunc i64 %indvars.iv45 to i32
  %15 = add i32 %0, %14
  br label %16

16:                                               ; preds = %.preheader40.us, %16
  %indvars.iv = phi i64 [ 0, %.preheader40.us ], [ %indvars.iv.next, %16 ]
  %17 = phi float [ %.promoted.us, %.preheader40.us ], [ %26, %16 ]
  %18 = trunc nuw nsw i64 %indvars.iv to i32
  %19 = sub i32 %15, %18
  %20 = getelementptr inbounds nuw float, ptr %3, i64 %indvars.iv
  %21 = load float, ptr %20, align 4, !tbaa !4
  %22 = srem i32 %19, %0
  %23 = sext i32 %22 to i64
  %24 = getelementptr inbounds float, ptr %1, i64 %23
  %25 = load float, ptr %24, align 4, !tbaa !4
  %26 = tail call float @llvm.fmuladd.f32(float %21, float %25, float %17)
  store float %26, ptr %13, align 4, !tbaa !4
  %indvars.iv.next = add nuw nsw i64 %indvars.iv, 1
  %exitcond.not = icmp eq i64 %indvars.iv.next, %wide.trip.count
  br i1 %exitcond.not, label %._crit_edge.us, label %16, !llvm.loop !14

._crit_edge.us:                                   ; preds = %16
  %indvars.iv.next46 = add nuw nsw i64 %indvars.iv45, 1
  %exitcond49.not = icmp eq i64 %indvars.iv.next46, %11
  br i1 %exitcond49.not, label %.lr.ph, label %.preheader40.us, !llvm.loop !15

.lr.ph:                                           ; preds = %._crit_edge.us, %.lr.ph
  %indvars.iv50 = phi i64 [ %indvars.iv.next51, %.lr.ph ], [ 0, %._crit_edge.us ]
  %27 = getelementptr inbounds nuw float, ptr %12, i64 %indvars.iv50
  %28 = load float, ptr %27, align 4, !tbaa !4
  %29 = getelementptr inbounds nuw float, ptr %1, i64 %indvars.iv50
  store float %28, ptr %29, align 4, !tbaa !4
  %indvars.iv.next51 = add nuw nsw i64 %indvars.iv50, 1
  %exitcond54.not = icmp eq i64 %indvars.iv.next51, %11
  br i1 %exitcond54.not, label %._crit_edge, label %.lr.ph, !llvm.loop !16

._crit_edge:                                      ; preds = %.lr.ph
  tail call void @_Z9save_freePKcS0_iPv(ptr noundef nonnull @.str.2, ptr noundef nonnull @.str.1, i32 noundef 120, ptr noundef nonnull %12)
  br label %30

30:                                               ; preds = %7, %4, %._crit_edge
  %.0 = phi i1 [ true, %._crit_edge ], [ false, %4 ], [ false, %7 ]
  ret i1 %.0
}